; Function Attrs: mustprogress uwtable
define noundef zeroext i1 @_ZN11colvarparse20get_key_string_valueERKNSt7__cxx1112basic_stringIcSt11char_traitsIcESaIcEEEPKcRS5_(ptr noundef nonnull align 8 dereferenceable(320) %0, ptr noundef nonnull align 8 dereferenceable(32) %1, ptr noundef %2, ptr noundef nonnull align 8 dereferenceable(32) %3) local_unnamed_addr #2 align 2 personality ptr @__gxx_personality_v0 {
  %5 = alloca i64, align 8
  %6 = alloca %"class.std::__cxx11::basic_string", align 8
  %7 = alloca %"class.std::allocator.8", align 1
  %8 = alloca %"class.std::__cxx11::basic_string", align 8
  %9 = alloca %"class.std::__cxx11::basic_string", align 8
  %10 = alloca %"class.std::__cxx11::basic_string", align 8
  %11 = alloca %"class.std::allocator.8", align 1
  store i64 0, ptr %5, align 8
  br label %12

12:                                               ; preds = %24, %4
  %.018 = phi i8 [ 0, %4 ], [ %spec.store.select, %24 ]
  %.016 = phi i64 [ 0, %4 ], [ %25, %24 ]
  call void @_ZNSaIcEC1Ev(ptr noundef nonnull align 1 dereferenceable(1) %7) #15
  %13 = invoke noundef ptr @_ZNSt7__cxx1112basic_stringIcSt11char_traitsIcESaIcEE13_M_local_dataEv(ptr noundef nonnull align 8 dereferenceable(32) %6)
          to label %.noexc unwind label %20

.noexc:                                           ; preds = %12
  invoke void @_ZNSt7__cxx1112basic_stringIcSt11char_traitsIcESaIcEE12_Alloc_hiderC1EPcRKS3_(ptr noundef nonnull align 8 dereferenceable(8) %6, ptr noundef %13, ptr noundef nonnull align 1 dereferenceable(1) %7)
          to label %.noexc24 unwind label %20

.noexc24:                                         ; preds = %.noexc
  invoke void @_ZNSt7__cxx1112basic_stringIcSt11char_traitsIcESaIcEE12_M_constructIPKcEEvT_S8_St20forward_iterator_tag(ptr noundef nonnull align 8 dereferenceable(32) %6, ptr noundef nonnull @.str.5, ptr noundef nonnull @.str.5)
          to label %_ZNSt7__cxx1112basic_stringIcSt11char_traitsIcESaIcEEC2IS3_EEPKcRKS3_.exit unwind label %14

14:                                               ; preds = %.noexc24
  %15 = landingpad { ptr, i32 }
          cleanup
  call void @_ZNSaIcED2Ev(ptr noundef nonnull align 1 dereferenceable(1) %6) #15
  br label %.body

_ZNSt7__cxx1112basic_stringIcSt11char_traitsIcESaIcEEC2IS3_EEPKcRKS3_.exit: ; preds = %.noexc24
  call void @_ZNSaIcED1Ev(ptr noundef nonnull align 1 dereferenceable(1) %7) #15
  %16 = invoke noundef zeroext i1 @_ZN11colvarparse10key_lookupERKNSt7__cxx1112basic_stringIcSt11char_traitsIcESaIcEEEPKcPS5_Pm(ptr noundef nonnull align 8 dereferenceable(320) %0, ptr noundef nonnull align 8 dereferenceable(32) %1, ptr noundef %2, ptr noundef nonnull %6, ptr noundef nonnull %5)
          to label %17 unwind label %22

17:                                               ; preds = %_ZNSt7__cxx1112basic_stringIcSt11char_traitsIcESaIcEEC2IS3_EEPKcRKS3_.exit
  br i1 %16, label %18, label %27

18:                                               ; preds = %17
  %19 = invoke noundef nonnull align 8 dereferenceable(32) ptr @_ZNSt7__cxx1112basic_stringIcSt11char_traitsIcESaIcEEaSERKS4_(ptr noundef nonnull align 8 dereferenceable(32) %3, ptr noundef nonnull align 8 dereferenceable(32) %6)
          to label %24 unwind label %22

20:                                               ; preds = %.noexc, %12
  %21 = landingpad { ptr, i32 }
          cleanup
  br label %.body

.body:                                            ; preds = %14, %20
  %eh.lpad-body = phi { ptr, i32 } [ %21, %20 ], [ %15, %14 ]
  call void @_ZNSaIcED1Ev(ptr noundef nonnull align 1 dereferenceable(1) %7) #15
  br label %57

22:                                               ; preds = %18, %_ZNSt7__cxx1112basic_stringIcSt11char_traitsIcESaIcEEC2IS3_EEPKcRKS3_.exit
  %23 = landingpad { ptr, i32 }
          cleanup
  call void @_ZNSt7__cxx1112basic_stringIcSt11char_traitsIcESaIcEED1Ev(ptr noundef nonnull align 8 dereferenceable(32) %6) #15
  br label %57

24:                                               ; preds = %18
  %25 = add i64 %.016, 1
  %26 = trunc nuw i8 %.018 to i1
  %spec.store.select = select i1 %26, i8 %.018, i8 1
  call void @_ZNSt7__cxx1112basic_stringIcSt11char_traitsIcESaIcEED1Ev(ptr noundef nonnull align 8 dereferenceable(32) %6) #15
  br label %12

27:                                               ; preds = %17
  call void @_ZNSt7__cxx1112basic_stringIcSt11char_traitsIcESaIcEED1Ev(ptr noundef nonnull align 8 dereferenceable(32) %6) #15
  %28 = icmp ugt i64 %.016, 1
  br i1 %28, label %29, label %55

29:                                               ; preds = %27
  call void @_ZNSaIcEC1Ev(ptr noundef nonnull align 1 dereferenceable(1) %11) #15
  %30 = invoke noundef ptr @_ZNSt7__cxx1112basic_stringIcSt11char_traitsIcESaIcEE13_M_local_dataEv(ptr noundef nonnull align 8 dereferenceable(32) %10)
          to label %.noexc25 unwind label %45

.noexc25:                                         ; preds = %29
  invoke void @_ZNSt7__cxx1112basic_stringIcSt11char_traitsIcESaIcEE12_Alloc_hiderC1EPcRKS3_(ptr noundef nonnull align 8 dereferenceable(8) %10, ptr noundef %30, ptr noundef nonnull align 1 dereferenceable(1) %11)
          to label %.noexc26 unwind label %45

.noexc26:                                         ; preds = %.noexc25
  %31 = icmp eq ptr %2, null
  br i1 %31, label %32, label %36

32:                                               ; preds = %.noexc26
  invoke void @_ZSt19__throw_logic_errorPKc(ptr noundef nonnull @.str.4) #18
          to label %33 unwind label %34

33:                                               ; preds = %32
  unreachable

34:                                               ; preds = %36, %32
  %35 = landingpad { ptr, i32 }
          cleanup
  call void @_ZNSaIcED2Ev(ptr noundef nonnull align 1 dereferenceable(1) %10) #15
  br label %.body27

36:                                               ; preds = %.noexc26
  %37 = call noundef i64 @strlen(ptr noundef nonnull dereferenceable(1) %2) #15
  %38 = getelementptr inbounds i8, ptr %2, i64 %37
  invoke void @_ZNSt7__cxx1112basic_stringIcSt11char_traitsIcESaIcEE12_M_constructIPKcEEvT_S8_St20forward_iterator_tag(ptr noundef nonnull align 8 dereferenceable(32) %10, ptr noundef nonnull %2, ptr noundef nonnull %38)
          to label %_ZNSt7__cxx1112basic_stringIcSt11char_traitsIcESaIcEEC2IS3_EEPKcRKS3_.exit29 unwind label %34

_ZNSt7__cxx1112basic_stringIcSt11char_traitsIcESaIcEEC2IS3_EEPKcRKS3_.exit29: ; preds = %36
  %39 = invoke noundef nonnull align 8 dereferenceable(32) ptr @_ZNSt7__cxx1112basic_stringIcSt11char_traitsIcESaIcEE6insertEmPKc(ptr noundef nonnull align 8 dereferenceable(32) %10, i64 noundef 0, ptr noundef nonnull @.str.6)
          to label %40 unwind label %47

40:                                               ; preds = %_ZNSt7__cxx1112basic_stringIcSt11char_traitsIcESaIcEEC2IS3_EEPKcRKS3_.exit29
  call void @_ZNSt7__cxx1112basic_stringIcSt11char_traitsIcESaIcEEC1EOS4_(ptr noundef nonnull align 8 dereferenceable(32) %9, ptr noundef nonnull align 8 dereferenceable(32) %39) #15
  %41 = invoke noundef nonnull align 8 dereferenceable(32) ptr @_ZNSt7__cxx1112basic_stringIcSt11char_traitsIcESaIcEE6appendEPKc(ptr noundef nonnull align 8 dereferenceable(32) %9, ptr noundef nonnull @.str.7)
          to label %42 unwind label %49

42:                                               ; preds = %40
  call void @_ZNSt7__cxx1112basic_stringIcSt11char_traitsIcESaIcEEC1EOS4_(ptr noundef nonnull align 8 dereferenceable(32) %8, ptr noundef nonnull align 8 dereferenceable(32) %41) #15
  %43 = invoke noundef i32 @_ZN12colvarmodule5errorERKNSt7__cxx1112basic_stringIcSt11char_traitsIcESaIcEEEi(ptr noundef nonnull align 8 dereferenceable(32) %8, i32 noundef 4)
          to label %44 unwind label %51

44:                                               ; preds = %42
  call void @_ZNSt7__cxx1112basic_stringIcSt11char_traitsIcESaIcEED1Ev(ptr noundef nonnull align 8 dereferenceable(32) %8) #15
  call void @_ZNSt7__cxx1112basic_stringIcSt11char_traitsIcESaIcEED1Ev(ptr noundef nonnull align 8 dereferenceable(32) %9) #15
  call void @_ZNSt7__cxx1112basic_stringIcSt11char_traitsIcESaIcEED1Ev(ptr noundef nonnull align 8 dereferenceable(32) %10) #15
  call void @_ZNSaIcED1Ev(ptr noundef nonnull align 1 dereferenceable(1) %11) #15
  br label %55

45:                                               ; preds = %.noexc25, %29
  %46 = landingpad { ptr, i32 }
          cleanup
  br label %.body27

47:                                               ; preds = %_ZNSt7__cxx1112basic_stringIcSt11char_traitsIcESaIcEEC2IS3_EEPKcRKS3_.exit29
  %48 = landingpad { ptr, i32 }
          cleanup
  br label %54

49:                                               ; preds = %40
  %50 = landingpad { ptr, i32 }
          cleanup
  br label %53

51:                                               ; preds = %42
  %52 = landingpad { ptr, i32 }
          cleanup
  call void @_ZNSt7__cxx1112basic_stringIcSt11char_traitsIcESaIcEED1Ev(ptr noundef nonnull align 8 dereferenceable(32) %8) #15
  br label %53

53:                                               ; preds = %51, %49
  %.pn = phi { ptr, i32 } [ %52, %51 ], [ %50, %49 ]
  call void @_ZNSt7__cxx1112basic_stringIcSt11char_traitsIcESaIcEED1Ev(ptr noundef nonnull align 8 dereferenceable(32) %9) #15
  br label %54

54:                                               ; preds = %53, %47
  %.pn.pn = phi { ptr, i32 } [ %.pn, %53 ], [ %48, %47 ]
  call void @_ZNSt7__cxx1112basic_stringIcSt11char_traitsIcESaIcEED1Ev(ptr noundef nonnull align 8 dereferenceable(32) %10) #15
  br label %.body27

.body27:                                          ; preds = %45, %34, %54
  %.pn.pn.pn = phi { ptr, i32 } [ %.pn.pn, %54 ], [ %46, %45 ], [ %35, %34 ]
  call void @_ZNSaIcED1Ev(ptr noundef nonnull align 1 dereferenceable(1) %11) #15
  br label %57

55:                                               ; preds = %44, %27
  %56 = trunc nuw i8 %.018 to i1
  ret i1 %56

57:                                               ; preds = %.body27, %22, %.body
  %.pn.pn.pn.pn = phi { ptr, i32 } [ %.pn.pn.pn, %.body27 ], [ %23, %22 ], [ %eh.lpad-body, %.body ]
  resume { ptr, i32 } %.pn.pn.pn.pn
}